target datalayout = "e-m:e-p270:32:32-p271:32:32-p272:64:64-i64:64-i128:128-f80:128-n8:16:32:64-S128"
target triple = "x86_64-pc-linux-gnu"

%union.pthread_mutex_t = type { %struct.__pthread_mutex_s }
%struct.__pthread_mutex_s = type { i32, i32, i32, i32, i32, i16, i16, %struct.__pthread_internal_list }
%struct.__pthread_internal_list = type { ptr, ptr }
%struct.slurm_conf_t = type { i64, ptr, i16, ptr, ptr, ptr, ptr, ptr, i16, ptr, ptr, ptr, ptr, ptr, ptr, ptr, i16, ptr, ptr, ptr, ptr, i16, ptr, ptr, ptr, i64, ptr, ptr, ptr, ptr, i16, ptr, ptr, i16, i32, ptr, i32, ptr, i32, i32, ptr, ptr, i64, i64, ptr, i16, i16, ptr, i32, i32, ptr, i32, ptr, i32, i16, i16, i16, ptr, i16, i16, ptr, ptr, i32, i16, i16, ptr, i32, i16, ptr, ptr, ptr, ptr, i16, ptr, ptr, ptr, ptr, i32, ptr, ptr, ptr, ptr, i16, i16, ptr, i32, i32, i32, i16, i16, ptr, ptr, i16, ptr, ptr, i32, i32, i32, i32, i32, i64, i32, i32, i16, ptr, ptr, i32, ptr, ptr, ptr, i16, i32, ptr, ptr, i16, ptr, ptr, i32, i16, ptr, ptr, ptr, ptr, i32, i32, i16, i16, i32, ptr, i16, ptr, i32, i32, i32, i32, i32, i32, ptr, i16, ptr, ptr, i32, i16, ptr, i32, i16, i16, ptr, ptr, ptr, i16, ptr, ptr, ptr, ptr, i16, i16, ptr, i16, ptr, i16, ptr, i16, ptr, i16, ptr, ptr, ptr, ptr, i16, ptr, ptr, ptr, i32, ptr, i32, ptr, ptr, i16, ptr, ptr, i32, i16, ptr, ptr, i16, i16, ptr, i16, ptr, ptr, ptr, i32, ptr, i16, i16, ptr, ptr, ptr, ptr, ptr, ptr, ptr, ptr, i16, i32, i16, ptr, ptr, ptr, ptr, i32, ptr, ptr, ptr, i16, ptr, ptr, ptr, i16, ptr, i16, ptr, i16, i16, ptr }
%struct.slurm_topo_ops = type { ptr, ptr, ptr, ptr, ptr, ptr, ptr, ptr, ptr, ptr, ptr, ptr, ptr, ptr }

@topo_conf = dso_local global ptr null, align 8
@.str = private unnamed_addr constant [5 x i8] c"topo\00", align 1
@g_context_lock = internal global %union.pthread_mutex_t zeroinitializer, align 8
@.str.1 = private unnamed_addr constant [29 x i8] c"%s: pthread_mutex_lock(): %m\00", align 1
@__func__.topology_g_init = private unnamed_addr constant [16 x i8] c"topology_g_init\00", align 1
@plugin_inited = internal global i32 0, align 4
@.str.2 = private unnamed_addr constant [14 x i8] c"topology.conf\00", align 1
@slurm_conf = external global %struct.slurm_conf_t, align 8
@ops = internal global %struct.slurm_topo_ops zeroinitializer, align 8
@syms = internal global [14 x ptr] [ptr @.str.11, ptr @.str.12, ptr @.str.13, ptr @.str.14, ptr @.str.15, ptr @.str.16, ptr @.str.17, ptr @.str.18, ptr @.str.19, ptr @.str.20, ptr @.str.21, ptr @.str.22, ptr @.str.23, ptr @.str.24], align 16
@g_context = internal global ptr null, align 8
@.str.3 = private unnamed_addr constant [32 x i8] c"cannot create %s context for %s\00", align 1
@active_topo_id = internal global i32 0, align 4
@.str.4 = private unnamed_addr constant [31 x i8] c"%s: pthread_mutex_unlock(): %m\00", align 1

; Function Attrs: nounwind uwtable
define dso_local i32 @topology_g_init() #0 {
  %1 = alloca i32, align 4
  %2 = alloca ptr, align 8
  %3 = alloca i32, align 4
  %4 = alloca i32, align 4
  call void @llvm.lifetime.start.p0(i64 4, ptr %1) #7
  store i32 0, ptr %1, align 4
  call void @llvm.lifetime.start.p0(i64 8, ptr %2) #7
  store ptr @.str, ptr %2, align 8
  br label %5

5:                                                ; preds = %0
  call void @llvm.lifetime.start.p0(i64 4, ptr %3) #7
  %6 = call i32 @pthread_mutex_lock(ptr noundef @g_context_lock) #7
  store i32 %6, ptr %3, align 4
  %7 = load i32, ptr %3, align 4
  %8 = icmp ne i32 %7, 0
  br i1 %8, label %9, label %12

9:                                                ; preds = %5
  %10 = load i32, ptr %3, align 4
  %11 = call ptr @__errno_location() #8
  store i32 %10, ptr %11, align 4
  call void (ptr, ...) @fatal_abort(ptr noundef @.str.1, ptr noundef @__func__.topology_g_init) #9
  unreachable

12:                                               ; preds = %5
  call void @llvm.lifetime.end.p0(i64 4, ptr %3) #7
  br label %13

13:                                               ; preds = %12
  br label %14

14:                                               ; preds = %13
  %15 = load i32, ptr @plugin_inited, align 4
  %16 = icmp ne i32 %15, 0
  br i1 %16, label %17, label %18

17:                                               ; preds = %14
  br label %36

18:                                               ; preds = %14
  %19 = load ptr, ptr @topo_conf, align 8
  %20 = icmp ne ptr %19, null
  br i1 %20, label %23, label %21

21:                                               ; preds = %18
  %22 = call ptr @get_extra_conf_path(ptr noundef @.str.2)
  store ptr %22, ptr @topo_conf, align 8
  br label %23

23:                                               ; preds = %21, %18
  %24 = load ptr, ptr %2, align 8
  %25 = load ptr, ptr getelementptr inbounds nuw (%struct.slurm_conf_t, ptr @slurm_conf, i32 0, i32 218), align 8
  %26 = call ptr @plugin_context_create(ptr noundef %24, ptr noundef %25, ptr noundef @ops, ptr noundef @syms, i64 noundef 112)
  store ptr %26, ptr @g_context, align 8
  %27 = load ptr, ptr @g_context, align 8
  %28 = icmp ne ptr %27, null
  br i1 %28, label %33, label %29

29:                                               ; preds = %23
  %30 = load ptr, ptr %2, align 8
  %31 = load ptr, ptr getelementptr inbounds nuw (%struct.slurm_conf_t, ptr @slurm_conf, i32 0, i32 218), align 8
  %32 = call i32 (ptr, ...) @error(ptr noundef @.str.3, ptr noundef %30, ptr noundef %31)
  store i32 -1, ptr %1, align 4
  store i32 0, ptr @plugin_inited, align 4
  br label %36

33:                                               ; preds = %23
  %34 = load ptr, ptr @ops, align 8
  %35 = load i32, ptr %34, align 4
  store i32 %35, ptr @active_topo_id, align 4
  store i32 2, ptr @plugin_inited, align 4
  br label %36

36:                                               ; preds = %33, %29, %17
  br label %37

37:                                               ; preds = %36
  call void @llvm.lifetime.start.p0(i64 4, ptr %4) #7
  %38 = call i32 @pthread_mutex_unlock(ptr noundef @g_context_lock) #7
  store i32 %38, ptr %4, align 4
  %39 = load i32, ptr %4, align 4
  %40 = icmp ne i32 %39, 0
  br i1 %40, label %41, label %44

41:                                               ; preds = %37
  %42 = load i32, ptr %4, align 4
  %43 = call ptr @__errno_location() #8
  store i32 %42, ptr %43, align 4
  call void (ptr, ...) @fatal_abort(ptr noundef @.str.4, ptr noundef @__func__.topology_g_init) #9
  unreachable

44:                                               ; preds = %37
  call void @llvm.lifetime.end.p0(i64 4, ptr %4) #7
  br label %45

45:                                               ; preds = %44
  br label %46

46:                                               ; preds = %45
  %47 = load i32, ptr %1, align 4
  call void @llvm.lifetime.end.p0(i64 8, ptr %2) #7
  call void @llvm.lifetime.end.p0(i64 4, ptr %1) #7
  ret i32 %47
}