; Function Attrs: nounwind uwtable
define dso_local range(i32 -1, 1) i32 @topology_g_init() local_unnamed_addr #0 {
  %1 = tail call i32 @pthread_mutex_lock(ptr noundef nonnull @g_context_lock) #9
  %.not = icmp eq i32 %1, 0
  br i1 %.not, label %4, label %2

2:                                                ; preds = %0
  %3 = tail call ptr @__errno_location() #10
  store i32 %1, ptr %3, align 4
  tail call void (ptr, ...) @fatal_abort(ptr noundef nonnull @.str.1, ptr noundef nonnull @__func__.topology_g_init) #11
  unreachable

4:                                                ; preds = %0
  %.b = load i1, ptr @plugin_inited, align 4
  br i1 %.b, label %18, label %5

5:                                                ; preds = %4
  %6 = load ptr, ptr @topo_conf, align 8
  %.not8 = icmp eq ptr %6, null
  br i1 %.not8, label %7, label %9

7:                                                ; preds = %5
  %8 = tail call ptr @get_extra_conf_path(ptr noundef nonnull @.str.2) #9
  store ptr %8, ptr @topo_conf, align 8
  br label %9

9:                                                ; preds = %7, %5
  %10 = load ptr, ptr getelementptr inbounds nuw (i8, ptr @slurm_conf, i64 1480), align 8
  %11 = tail call ptr @plugin_context_create(ptr noundef nonnull @.str, ptr noundef %10, ptr noundef nonnull @ops, ptr noundef nonnull @syms, i64 noundef 112) #9
  store ptr %11, ptr @g_context, align 8
  %.not9 = icmp ne ptr %11, null
  br i1 %.not9, label %15, label %12

12:                                               ; preds = %9
  %13 = load ptr, ptr getelementptr inbounds nuw (i8, ptr @slurm_conf, i64 1480), align 8
  %14 = tail call i32 (ptr, ...) @error(ptr noundef nonnull @.str.3, ptr noundef nonnull @.str, ptr noundef %13) #9
  br label %.sink.split

15:                                               ; preds = %9
  %16 = load ptr, ptr @ops, align 8
  %17 = load i32, ptr %16, align 4
  store i32 %17, ptr @active_topo_id, align 4
  br label %.sink.split

.sink.split:                                      ; preds = %15, %12
  %.0.ph = phi i32 [ -1, %12 ], [ 0, %15 ]
  store i1 %.not9, ptr @plugin_inited, align 4
  br label %18

18:                                               ; preds = %.sink.split, %4
  %.0 = phi i32 [ 0, %4 ], [ %.0.ph, %.sink.split ]
  %19 = tail call i32 @pthread_mutex_unlock(ptr noundef nonnull @g_context_lock) #9
  %.not10 = icmp eq i32 %19, 0
  br i1 %.not10, label %22, label %20

20:                                               ; preds = %18
  %21 = tail call ptr @__errno_location() #10
  store i32 %19, ptr %21, align 4
  tail call void (ptr, ...) @fatal_abort(ptr noundef nonnull @.str.4, ptr noundef nonnull @__func__.topology_g_init) #11
  unreachable

22:                                               ; preds = %18
  ret i32 %.0
}